Certificate:
    Data:
        Version: 3 (0x2)
        Serial Number: 1 (0x1)
    Signature Algorithm: sha1WithRSAEncryption
        Issuer: C=US, ST=Unset, L=Unset, O=Unset, CN=www.example.com
        Validity
            Not Before: Apr 11 03:39:55 2016 GMT
            Not After : Apr  9 03:39:55 2026 GMT
        Subject: C=US, ST=Unset, O=Unset, CN=www.example.com
        Subject Public Key Info:
            Public Key Algorithm: rsaEncryption
                Public-Key: (2048 bit)
                Modulus:
                    00:bf:16:17:75:7e:78:d2:4a:d2:a3:9f:66:6b:91:
                    c0:27:75:f9:0a:76:07:d1:a3:5c:b6:a5:a2:c4:ec:
                    d8:2e:a1:48:ed:b0:cb:39:25:8f:0a:1d:15:6e:15:
                    36:71:20:96:63:c5:a0:5d:9a:91:8c:0d:ac:56:ff:
                    f8:80:56:63:21:42:57:3f:ce:d6:83:a4:14:f0:d5:
                    cb:6c:aa:8d:be:7c:4f:35:33:b2:40:48:86:ce:4b:
                    f8:00:23:4c:77:48:97:8a:f3:15:d2:35:eb:dc:c7:
                    b8:9d:36:38:3a:b6:c8:89:6e:bf:92:10:23:52:cb:
                    c4:52:43:26:79:bb:32:c0:7d:84:8d:5b:7c:9b:a6:
                    36:a9:9f:15:75:ea:04:d3:f5:6e:40:fe:9b:72:09:
                    ec:24:90:8e:83:a9:97:58:08:77:ca:d1:2c:c3:89:
                    bc:cd:97:61:00:0a:ac:9d:bf:7e:f4:ff:82:d6:10:
                    8e:4c:a1:07:ab:3f:85:ba:a0:3f:b3:77:ae:52:38:
                    0f:92:09:82:4f:a7:8d:bf:56:62:53:05:50:9e:e5:
                    01:73:c8:03:1e:d7:2b:ca:0a:b8:2d:9f:df:e4:e2:
                    98:13:d4:54:a3:a5:3e:51:24:3a:91:1e:f5:d8:37:
                    59:38:cb:83:43:14:59:65:dd:d0:5d:8c:e6:5a:34:
                    68:7d
                Exponent: 65537 (0x10001)
        X509v3 extensions:
            X509v3 Basic Constraints: 
                CA:FALSE
            X509v3 Subject Key Identifier: 
                9E:05:6E:8B:94:AC:76:64:F0:D4:F2:D4:35:A6:39:44:A6:91:7E:5A
            X509v3 Authority Key Identifier: 
                keyid:C7:6D:DD:C8:E2:54:AF:05:AF:38:7C:02:AA:85:79:7D:71:3C:09:F0

    Signature Algorithm: sha1WithRSAEncryption
         20:af:0e:a5:48:2e:20:7c:34:63:8a:01:16:5a:c1:77:22:af:
         8d:56:fb:79:53:57:eb:5c:af:44:44:c7:74:d1:a5:c0:b6:d7:
         ed:6c:b7:3d:60:25:07:e3:3a:0d:b4:54:75:32:18:de:d5:f3:
         8a:e3:a5:ad:83:36:e5:db:2b:4d:d5:5d:e6:81:48:ef:8c:44:
         87:36:3a:ce:66:15:92:68:bc:f5:96:f2:a0:93:78:ff:c2:6d:
         73:b2:15:08:f2:69:e1:09:39:1c:5e:87:cb:05:9d:7d:3d:b4:
         da:17:35:cb:15:7b:4a:61:81:26:e4:a5:26:09:17:07:49:95:
         b3:4b:63:27:96:d4:51:2a:1e:4d:fb:bb:b6:80:1f:a6:bc:1a:
         e0:c3:01:dc:6b:9b:23:89:70:70:e9:36:ba:6e:3e:50:bb:6c:
         6c:94:d5:44:be:ea:8c:df:82:c1:05:80:83:cb:95:5f:6d:50:
         4d:67:ca:52:fc:4f:80:9c:b1:0c:09:91:73:8f:6d:17:c7:2d:
         c3:c9:94:17:65:ed:b9:13:51:0d:66:64:af:ee:b0:f2:fd:08:
         09:03:9d:d9:ea:97:cf:85:ad:70:5d:ad:a0:af:fe:17:79:4c:
         07:76:3a:ee:72:06:41:6c:c5:a5:e3:99:cd:ef:78:60:01:ee:
         0e:fc:c4:a2
-----BEGIN CERTIFICATE-----
MIIDZjCCAk6gAwIBAgIBATANBgkqhkiG9w0BAQUFADBXMQswCQYDVQQGEwJVUzEO
MAwGA1UECAwFVW5zZXQxDjAMBgNVBAcMBVVuc2V0MQ4wDAYDVQQKDAVVbnNldDEY
MBYGA1UEAwwPd3d3LmV4YW1wbGUuY29tMB4XDTE2MDQxMTAzMzk1NVoXDTI2MDQw
OTAzMzk1NVowRzELMAkGA1UEBhMCVVMxDjAMBgNVBAgMBVVuc2V0MQ4wDAYDVQQK
DAVVbnNldDEYMBYGA1UEAwwPd3d3LmV4YW1wbGUuY29tMIIBIjANBgkqhkiG9w0B
AQEFAAOCAQ8AMIIBCgKCAQEAvxYXdX540krSo59ma5HAJ3X5CnYH0aNctqWixOzY
LqFI7bDLOSWPCh0VbhU2cSCWY8WgXZqRjA2sVv/4gFZjIUJXP87Wg6QU8NXLbKqN
vnxPNTOyQEiGzkv4ACNMd0iXivMV0jXr3Me4nTY4OrbIiW6/khAjUsvEUkMmebsy
wH2EjVt8m6Y2qZ8VdeoE0/VuQP6bcgnsJJCOg6mXWAh3ytEsw4m8zZdhAAqsnb9+
9P+C1hCOTKEHqz+FuqA/s3euUjgPkgmCT6eNv1ZiUwVQnuUBc8gDHtcrygq4LZ/f
5OKYE9RUo6U+USQ6kR712DdZOMuDQxRZZd3QXYzmWjRofQIDAQABo00wSzAJBgNV
HRMEAjAAMB0GA1UdDgQWBBSeBW6LlKx2ZPDU8tQ1pjlEppF+WjAfBgNVHSMEGDAW
gBTHbd3I4lSvBa84fAKqhXl9cTwJ8DANBgkqhkiG9w0BAQUFAAOCAQEAIK8OpUgu
IHw0Y4oBFlrBdyKvjVb7eVNX61yvRETHdNGlwLbX7Wy3PWAlB+M6DbRUdTIY3tXz
iuOlrYM25dsrTdVd5oFI74xEhzY6zmYVkmi89ZbyoJN4/8Jtc7IVCPJp4Qk5HF6H
ywWdfT202hc1yxV7SmGBJuSlJgkXB0mVs0tjJ5bUUSoeTfu7toAfprwa4MMB3Gub
I4lwcOk2um4+ULtsbJTVRL7qjN+CwQWAg8uVX21QTWfKUvxPgJyxDAmRc49tF8ct
w8mUF2XtuRNRDWZkr+6w8v0ICQOd2eqXz4WtcF2toK/+F3lMB3Y67nIGQWzFpeOZ
ze94YAHuDvzEog==
-----END CERTIFICATE-----
