Certificate:
    Data:
        Version: 3 (0x2)
        Serial Number: 1 (0x1)
    Signature Algorithm: sha1WithRSAEncryption
        Issuer: C=US, ST=Unset, L=Unset, O=Unset, CN=www.example.com
        Validity
            Not Before: Nov 28 14:20:48 2014 GMT
            Not After : Nov 25 14:20:48 2024 GMT
        Subject: C=US, ST=Unset, O=Unset, CN=www.example.com
        Subject Public Key Info:
            Public Key Algorithm: rsaEncryption
                Public-Key: (2048 bit)
                Modulus:
                    00:ad:5f:f6:d6:46:1a:27:29:4c:ba:77:77:c6:c4:
                    5f:6b:28:9a:95:60:44:d9:6e:8d:11:37:cd:07:0e:
                    26:61:98:8e:97:6c:1b:87:dd:6d:75:ad:21:1b:8b:
                    4b:7e:37:6a:eb:70:21:98:a7:3e:d7:b0:46:5c:83:
                    37:fa:a0:18:d8:ff:1f:09:a2:96:32:71:d3:24:65:
                    e6:62:2e:f7:cd:fd:8d:8c:6c:31:b7:ef:f6:6c:fc:
                    e5:d1:17:ed:d3:7c:6c:16:4a:5f:bf:ee:ae:50:0d:
                    c5:3b:8d:cc:31:81:97:dc:60:1d:f7:57:c1:06:e1:
                    b5:52:56:c2:a3:64:88:9e:10:fd:e3:a1:37:af:33:
                    3c:73:18:49:d7:fc:fb:23:11:5b:e5:87:89:4d:c7:
                    df:42:a7:98:71:8e:f3:41:4f:b5:1b:16:c2:b1:ba:
                    91:a5:fd:c6:18:f7:91:be:b9:69:a9:ef:af:98:86:
                    33:1c:6a:75:7c:eb:9b:7a:4d:a5:08:e5:9f:ff:f8:
                    ec:76:a4:98:6c:1d:61:25:05:1e:30:a0:5d:0e:f5:
                    5c:23:e6:8c:31:3d:d5:09:3e:82:d8:cd:5c:6f:8e:
                    a6:75:a5:35:9b:7a:c2:4e:5d:a2:f1:74:03:de:5e:
                    b2:02:17:0b:c0:94:47:14:c2:39:72:76:b3:76:d4:
                    5b:99
                Exponent: 65537 (0x10001)
        X509v3 extensions:
            X509v3 Basic Constraints: 
                CA:FALSE
            X509v3 Subject Key Identifier: 
                5C:9D:33:62:27:B7:29:DC:BB:B0:77:5F:D0:F1:45:2C:21:1E:D0:83
            X509v3 Authority Key Identifier: 
                keyid:E1:91:21:C0:1A:42:F7:52:EB:7E:57:5F:75:6C:78:95:FA:17:DD:10

    Signature Algorithm: sha1WithRSAEncryption
         31:c5:57:06:b7:6c:4d:ca:68:82:6f:2a:f5:4e:74:59:f0:7a:
         13:9c:4e:e8:7b:c9:2e:2d:22:16:8f:09:e8:bb:53:96:77:98:
         1e:6b:bd:be:d0:80:c4:58:66:90:c6:35:ab:10:ac:dc:55:1d:
         d6:40:a7:a1:62:68:90:03:fc:24:ad:e2:43:64:d2:86:11:4e:
         08:2f:c4:1f:67:13:e8:e9:96:c9:f6:85:6e:cf:7a:01:18:d7:
         2c:b2:8f:f0:ae:68:ea:2a:19:2b:60:89:43:59:fd:b5:24:10:
         0a:8c:2d:77:55:38:b4:98:a6:cd:ad:d8:ba:00:0f:33:b1:c9:
         5d:3f:a6:15:75:cc:4f:7e:c1:60:f1:e3:23:c1:6f:ee:c8:fa:
         5c:ea:49:07:91:36:c0:94:6c:e8:ae:e0:12:3f:46:a2:57:8a:
         c3:5a:a1:1d:98:68:6c:66:7b:85:03:a9:64:e5:d0:53:e1:2f:
         1e:a7:6d:58:c9:eb:a0:92:fa:1e:cb:3f:52:4f:7e:76:5a:4f:
         bb:6c:dc:a8:8b:b9:c8:8e:c5:4e:92:8f:1a:15:f1:8a:c5:35:
         00:b4:ca:f8:b7:70:be:3d:78:91:45:83:95:fc:19:6c:ef:7c:
         67:73:c0:f9:ac:02:24:e2:52:e5:ea:75:5a:c1:cd:d9:c7:54:
         6d:35:9c:2a
-----BEGIN CERTIFICATE-----
MIIDZjCCAk6gAwIBAgIBATANBgkqhkiG9w0BAQUFADBXMQswCQYDVQQGEwJVUzEO
MAwGA1UECAwFVW5zZXQxDjAMBgNVBAcMBVVuc2V0MQ4wDAYDVQQKDAVVbnNldDEY
MBYGA1UEAwwPd3d3LmV4YW1wbGUuY29tMB4XDTE0MTEyODE0MjA0OFoXDTI0MTEy
NTE0MjA0OFowRzELMAkGA1UEBhMCVVMxDjAMBgNVBAgMBVVuc2V0MQ4wDAYDVQQK
DAVVbnNldDEYMBYGA1UEAwwPd3d3LmV4YW1wbGUuY29tMIIBIjANBgkqhkiG9w0B
AQEFAAOCAQ8AMIIBCgKCAQEArV/21kYaJylMund3xsRfayialWBE2W6NETfNBw4m
YZiOl2wbh91tda0hG4tLfjdq63AhmKc+17BGXIM3+qAY2P8fCaKWMnHTJGXmYi73
zf2NjGwxt+/2bPzl0Rft03xsFkpfv+6uUA3FO43MMYGX3GAd91fBBuG1UlbCo2SI
nhD946E3rzM8cxhJ1/z7IxFb5YeJTcffQqeYcY7zQU+1GxbCsbqRpf3GGPeRvrlp
qe+vmIYzHGp1fOubek2lCOWf//jsdqSYbB1hJQUeMKBdDvVcI+aMMT3VCT6C2M1c
b46mdaU1m3rCTl2i8XQD3l6yAhcLwJRHFMI5cnazdtRbmQIDAQABo00wSzAJBgNV
HRMEAjAAMB0GA1UdDgQWBBRcnTNiJ7cp3Luwd1/Q8UUsIR7QgzAfBgNVHSMEGDAW
gBThkSHAGkL3Uut+V191bHiV+hfdEDANBgkqhkiG9w0BAQUFAAOCAQEAMcVXBrds
Tcpogm8q9U50WfB6E5xO6HvJLi0iFo8J6LtTlneYHmu9vtCAxFhmkMY1qxCs3FUd
1kCnoWJokAP8JK3iQ2TShhFOCC/EH2cT6OmWyfaFbs96ARjXLLKP8K5o6ioZK2CJ
Q1n9tSQQCowtd1U4tJimza3YugAPM7HJXT+mFXXMT37BYPHjI8Fv7sj6XOpJB5E2
wJRs6K7gEj9GoleKw1qhHZhobGZ7hQOpZOXQU+EvHqdtWMnroJL6Hss/Uk9+dlpP
u2zcqIu5yI7FTpKPGhXxisU1ALTK+Ldwvj14kUWDlfwZbO98Z3PA+awCJOJS5ep1
WsHN2cdUbTWcKg==
-----END CERTIFICATE-----
