Certificate:
    Data:
        Version: 3 (0x2)
        Serial Number: 1 (0x1)
    Signature Algorithm: sha1WithRSAEncryption
        Issuer: C=US, ST=Unset, L=Unset, O=Unset, CN=www.example.com
        Validity
            Not Before: Nov 25 16:59:04 2014 GMT
            Not After : Nov 22 16:59:04 2024 GMT
        Subject: C=US, ST=Unset, O=Unset, CN=www.example.com
        Subject Public Key Info:
            Public Key Algorithm: rsaEncryption
                Public-Key: (2048 bit)
                Modulus:
                    00:a4:cb:18:48:c1:23:23:a9:0d:00:69:2a:54:20:
                    55:79:53:7c:f5:ad:a7:48:2e:9b:7b:5d:b9:d7:83:
                    8d:0c:39:85:8f:90:ef:69:8f:4d:29:86:1c:10:88:
                    74:a6:12:30:7e:82:43:6e:74:b5:48:aa:89:06:58:
                    bf:d2:44:03:d5:be:37:ca:75:71:cf:04:10:fa:e4:
                    69:5b:fd:f6:fb:02:d8:4d:3e:19:e0:d0:f4:a1:ac:
                    04:de:76:78:99:84:e4:e2:ed:69:dd:04:52:26:4b:
                    85:cb:69:50:ef:51:3c:19:50:bd:d4:3e:84:d9:84:
                    b5:f2:d2:86:b8:12:4a:32:34:d8:91:a5:b1:b1:92:
                    a6:7d:58:f5:7f:d5:72:82:c5:1c:0e:d9:7c:a8:26:
                    23:a2:cb:e5:b8:46:b8:92:a3:43:ef:b3:8b:24:e6:
                    4c:02:2c:95:7b:2c:5e:95:f9:f3:91:da:aa:4a:4e:
                    ee:f2:dd:9a:80:07:94:54:ea:ed:9e:72:8a:29:96:
                    69:db:d2:0f:bb:66:55:03:e0:d2:f3:64:2e:ac:ec:
                    74:cf:24:c1:dc:22:2c:e3:21:2d:7d:89:b1:1c:47:
                    46:ff:1f:4c:09:44:e8:7d:5d:ab:a6:47:0b:80:30:
                    5f:93:89:9a:4b:a0:dc:d8:b7:79:2c:2e:1c:1b:1e:
                    cf:1b
                Exponent: 65537 (0x10001)
        X509v3 extensions:
            X509v3 Basic Constraints: 
                CA:FALSE
            X509v3 Subject Key Identifier: 
                EC:B2:03:0F:C3:4A:20:6E:73:81:21:78:5B:9B:AE:57:B3:4B:F5:07
            X509v3 Authority Key Identifier: 
                keyid:18:7C:CE:94:D2:70:18:6C:13:40:E7:CF:F5:C6:00:6B:2F:11:5A:7A

    Signature Algorithm: sha1WithRSAEncryption
         97:d4:b1:8e:87:79:f5:30:13:62:ec:cf:2a:e4:ac:de:7d:78:
         90:4f:e3:46:3a:8d:71:52:e0:57:87:96:b2:75:0e:28:7c:37:
         67:41:09:40:f9:01:fc:1a:1a:fd:92:d1:0a:e5:7d:f9:97:59:
         24:3a:08:ab:fb:d4:19:b9:b3:4f:6f:9c:b4:da:7a:c3:a9:0d:
         6b:58:d4:aa:81:01:0a:b9:72:ce:54:59:3a:75:e0:89:36:c0:
         c2:63:1e:ef:8c:d1:6c:26:4a:d2:3a:5c:19:87:1b:df:40:52:
         57:bf:60:54:c0:eb:96:77:06:4a:de:df:82:20:c1:66:7b:40:
         aa:75:41:c0:9a:d4:f6:03:12:6c:b8:80:92:c8:85:a4:fd:8c:
         45:ff:2b:0c:cc:a1:a1:f9:33:ec:46:81:0d:9e:82:a1:4e:a7:
         1b:3e:70:29:47:82:20:a9:8f:c8:b9:0a:ac:d1:8f:e4:79:ec:
         8f:e8:0b:eb:8b:81:8d:ca:9e:e8:01:f1:e2:04:2b:cf:f2:26:
         78:31:17:bd:75:79:3c:22:4d:6a:29:6b:34:e2:c2:5c:94:2d:
         4a:0e:df:d7:66:5b:6d:df:55:8b:47:b8:f8:b4:c2:13:ab:25:
         3c:15:08:23:97:01:12:3a:f8:9a:16:a3:f1:74:75:c7:51:1d:
         c8:35:39:02
-----BEGIN CERTIFICATE-----
MIIDZjCCAk6gAwIBAgIBATANBgkqhkiG9w0BAQUFADBXMQswCQYDVQQGEwJVUzEO
MAwGA1UECAwFVW5zZXQxDjAMBgNVBAcMBVVuc2V0MQ4wDAYDVQQKDAVVbnNldDEY
MBYGA1UEAwwPd3d3LmV4YW1wbGUuY29tMB4XDTE0MTEyNTE2NTkwNFoXDTI0MTEy
MjE2NTkwNFowRzELMAkGA1UEBhMCVVMxDjAMBgNVBAgMBVVuc2V0MQ4wDAYDVQQK
DAVVbnNldDEYMBYGA1UEAwwPd3d3LmV4YW1wbGUuY29tMIIBIjANBgkqhkiG9w0B
AQEFAAOCAQ8AMIIBCgKCAQEApMsYSMEjI6kNAGkqVCBVeVN89a2nSC6be12514ON
DDmFj5DvaY9NKYYcEIh0phIwfoJDbnS1SKqJBli/0kQD1b43ynVxzwQQ+uRpW/32
+wLYTT4Z4ND0oawE3nZ4mYTk4u1p3QRSJkuFy2lQ71E8GVC91D6E2YS18tKGuBJK
MjTYkaWxsZKmfVj1f9VygsUcDtl8qCYjosvluEa4kqND77OLJOZMAiyVeyxelfnz
kdqqSk7u8t2agAeUVOrtnnKKKZZp29IPu2ZVA+DS82QurOx0zyTB3CIs4yEtfYmx
HEdG/x9MCUTofV2rpkcLgDBfk4maS6Dc2Ld5LC4cGx7PGwIDAQABo00wSzAJBgNV
HRMEAjAAMB0GA1UdDgQWBBTssgMPw0ogbnOBIXhbm65Xs0v1BzAfBgNVHSMEGDAW
gBQYfM6U0nAYbBNA58/1xgBrLxFaejANBgkqhkiG9w0BAQUFAAOCAQEAl9Sxjod5
9TATYuzPKuSs3n14kE/jRjqNcVLgV4eWsnUOKHw3Z0EJQPkB/Boa/ZLRCuV9+ZdZ
JDoIq/vUGbmzT2+ctNp6w6kNa1jUqoEBCrlyzlRZOnXgiTbAwmMe74zRbCZK0jpc
GYcb30BSV79gVMDrlncGSt7fgiDBZntAqnVBwJrU9gMSbLiAksiFpP2MRf8rDMyh
ofkz7EaBDZ6CoU6nGz5wKUeCIKmPyLkKrNGP5Hnsj+gL64uBjcqe6AHx4gQrz/Im
eDEXvXV5PCJNailrNOLCXJQtSg7f12Zbbd9Vi0e4+LTCE6slPBUII5cBEjr4mhaj
8XR1x1EdyDU5Ag==
-----END CERTIFICATE-----
